target datalayout = "e-m:e-p270:32:32-p271:32:32-p272:64:64-i64:64-i128:128-f80:128-n8:16:32:64-S128"
target triple = "x86_64-pc-linux-gnu"

@hf_awdl_unknown = internal global i32 0, align 4
@hf_awdl_serviceparams_sui = internal global i32 0, align 4
@hf_awdl_serviceparams_enc_values = internal global i32 0, align 4
@hf_awdl_serviceparams_bitmask = internal global i32 0, align 4
@hf_awdl_serviceparams_values = internal global i32 0, align 4
@ett_awdl_serviceparams_bitmask = internal global i32 0, align 4
@ett_awdl_serviceparams_values = internal global i32 0, align 4
@ett_awdl_serviceparams_value = internal global i32 0, align 4
@.str.572 = private unnamed_addr constant [5 x i8] c": %u\00", align 1
@.str.573 = private unnamed_addr constant [5 x i8] c", %u\00", align 1
@.str.574 = private unnamed_addr constant [13 x i8] c" (offset %u)\00", align 1

; Function Attrs: inlinehint nounwind null_pointer_is_valid sspstrong uwtable
define internal zeroext i1 @test_bit_uint32(i32 noundef %0, i32 noundef %1) #3 {
  %3 = alloca i32, align 4
  %4 = alloca i32, align 4
  store i32 %0, ptr %3, align 4
  store i32 %1, ptr %4, align 4
  %5 = load i32, ptr %4, align 4
  %6 = load i32, ptr %3, align 4
  %7 = lshr i32 %5, %6
  %8 = and i32 %7, 1
  %9 = icmp eq i32 %8, 1
  ret i1 %9
}

; Function Attrs: null_pointer_is_valid sspstrong uwtable
define internal i32 @awdl_tag_service_params(ptr noundef %0, ptr noundef %1, ptr noundef %2, ptr noundef %3) #0 {
  %5 = alloca ptr, align 8
  %6 = alloca ptr, align 8
  %7 = alloca ptr, align 8
  %8 = alloca ptr, align 8
  %9 = alloca ptr, align 8
  %10 = alloca ptr, align 8
  %11 = alloca ptr, align 8
  %12 = alloca i32, align 4
  %13 = alloca i32, align 4
  %14 = alloca i32, align 4
  %15 = alloca i32, align 4
  %16 = alloca i32, align 4
  %17 = alloca ptr, align 8
  %18 = alloca i32, align 4
  %19 = alloca i8, align 1
  %20 = alloca i32, align 4
  store ptr %0, ptr %5, align 8
  store ptr %1, ptr %6, align 8
  store ptr %2, ptr %7, align 8
  store ptr %3, ptr %8, align 8
  call void @llvm.lifetime.start.p0(i64 8, ptr %9) #6
  call void @llvm.lifetime.start.p0(i64 8, ptr %10) #6
  call void @llvm.lifetime.start.p0(i64 8, ptr %11) #6
  call void @llvm.lifetime.start.p0(i64 4, ptr %12) #6
  store i32 0, ptr %12, align 4
  %21 = load ptr, ptr %7, align 8
  %22 = load i32, ptr @hf_awdl_unknown, align 4
  %23 = load ptr, ptr %5, align 8
  %24 = load i32, ptr %12, align 4
  %25 = call ptr @proto_tree_add_item(ptr noundef %21, i32 noundef %22, ptr noundef %23, i32 noundef %24, i32 noundef 3, i32 noundef 0)
  %26 = load i32, ptr %12, align 4
  %27 = add i32 %26, 3
  store i32 %27, ptr %12, align 4
  %28 = load ptr, ptr %7, align 8
  %29 = load i32, ptr @hf_awdl_serviceparams_sui, align 4
  %30 = load ptr, ptr %5, align 8
  %31 = load i32, ptr %12, align 4
  %32 = call ptr @proto_tree_add_item(ptr noundef %28, i32 noundef %29, ptr noundef %30, i32 noundef %31, i32 noundef 2, i32 noundef -2147483648)
  %33 = load i32, ptr %12, align 4
  %34 = add i32 %33, 2
  store i32 %34, ptr %12, align 4
  %35 = load ptr, ptr %7, align 8
  %36 = load i32, ptr @hf_awdl_serviceparams_enc_values, align 4
  %37 = load ptr, ptr %5, align 8
  %38 = load i32, ptr %12, align 4
  %39 = call ptr @proto_tree_add_item(ptr noundef %35, i32 noundef %36, ptr noundef %37, i32 noundef %38, i32 noundef 0, i32 noundef 0)
  store ptr %39, ptr %9, align 8
  %40 = load ptr, ptr %9, align 8
  %41 = load i32, ptr @ett_awdl_serviceparams_values, align 4
  %42 = call ptr @proto_item_add_subtree(ptr noundef %40, i32 noundef %41)
  store ptr %42, ptr %11, align 8
  %43 = load ptr, ptr %11, align 8
  %44 = load ptr, ptr %5, align 8
  %45 = load i32, ptr %12, align 4
  %46 = load i32, ptr @hf_awdl_serviceparams_bitmask, align 4
  %47 = load i32, ptr @ett_awdl_serviceparams_bitmask, align 4
  %48 = call ptr @proto_tree_add_bitmask_with_flags(ptr noundef %43, ptr noundef %44, i32 noundef %45, i32 noundef %46, i32 noundef %47, ptr noundef @awdl_tag_service_params.bitmask_fields, i32 noundef -2147483648, i32 noundef 1)
  store ptr %48, ptr %10, align 8
  call void @llvm.lifetime.start.p0(i64 4, ptr %13) #6
  %49 = load ptr, ptr %5, align 8
  %50 = load i32, ptr %12, align 4
  %51 = call i32 @tvb_get_uint32(ptr noundef %49, i32 noundef %50, i32 noundef -2147483648)
  store i32 %51, ptr %13, align 4
  %52 = load i32, ptr %12, align 4
  %53 = add i32 %52, 4
  store i32 %53, ptr %12, align 4
  %54 = load i32, ptr %13, align 4
  %55 = icmp ne i32 %54, 0
  br i1 %55, label %56, label %121

56:                                               ; preds = %4
  call void @llvm.lifetime.start.p0(i64 4, ptr %14) #6
  store i32 0, ptr %14, align 4
  call void @llvm.lifetime.start.p0(i64 4, ptr %15) #6
  store i32 0, ptr %15, align 4
  br label %57

57:                                               ; preds = %114, %56
  %58 = load i32, ptr %15, align 4
  %59 = icmp ult i32 %58, 32
  br i1 %59, label %61, label %60

60:                                               ; preds = %57
  store i32 2, ptr %16, align 4
  call void @llvm.lifetime.end.p0(i64 4, ptr %15) #6
  br label %117

61:                                               ; preds = %57
  %62 = load i32, ptr %15, align 4
  %63 = load i32, ptr %13, align 4
  %64 = call zeroext i1 @test_bit_uint32(i32 noundef %62, i32 noundef %63)
  br i1 %64, label %65, label %113

65:                                               ; preds = %61
  call void @llvm.lifetime.start.p0(i64 8, ptr %17) #6
  call void @llvm.lifetime.start.p0(i64 4, ptr %18) #6
  %66 = load i32, ptr %15, align 4
  %67 = shl i32 %66, 3
  store i32 %67, ptr %18, align 4
  %68 = load ptr, ptr %11, align 8
  %69 = load ptr, ptr %5, align 8
  %70 = load i32, ptr %12, align 4
  %71 = load i32, ptr @hf_awdl_serviceparams_values, align 4
  %72 = load i32, ptr @ett_awdl_serviceparams_value, align 4
  %73 = call ptr @proto_tree_add_bitmask(ptr noundef %68, ptr noundef %69, i32 noundef %70, i32 noundef %71, i32 noundef %72, ptr noundef @awdl_tag_service_params.value_fields, i32 noundef -2147483648)
  store ptr %73, ptr %17, align 8
  call void @llvm.lifetime.start.p0(i64 1, ptr %19) #6
  %74 = load ptr, ptr %5, align 8
  %75 = load i32, ptr %12, align 4
  %76 = call zeroext i8 @tvb_get_uint8(ptr noundef %74, i32 noundef %75)
  store i8 %76, ptr %19, align 1
  call void @llvm.lifetime.start.p0(i64 4, ptr %20) #6
  store i32 0, ptr %20, align 4
  br label %77

77:                                               ; preds = %103, %65
  %78 = load i32, ptr %20, align 4
  %79 = icmp ult i32 %78, 8
  br i1 %79, label %81, label %80

80:                                               ; preds = %77
  store i32 5, ptr %16, align 4
  call void @llvm.lifetime.end.p0(i64 4, ptr %20) #6
  br label %106

81:                                               ; preds = %77
  %82 = load i32, ptr %20, align 4
  %83 = load i8, ptr %19, align 1
  %84 = zext i8 %83 to i32
  %85 = call zeroext i1 @test_bit_uint32(i32 noundef %82, i32 noundef %84)
  br i1 %85, label %86, label %102

86:                                               ; preds = %81
  %87 = load i32, ptr %14, align 4
  %88 = icmp eq i32 %87, 0
  br i1 %88, label %89, label %94

89:                                               ; preds = %86
  %90 = load ptr, ptr %9, align 8
  %91 = load i32, ptr %20, align 4
  %92 = load i32, ptr %18, align 4
  %93 = add i32 %91, %92
  call void (ptr, ptr, ...) @proto_item_append_text(ptr noundef %90, ptr noundef @.str.572, i32 noundef %93)
  br label %99

94:                                               ; preds = %86
  %95 = load ptr, ptr %9, align 8
  %96 = load i32, ptr %20, align 4
  %97 = load i32, ptr %18, align 4
  %98 = add i32 %96, %97
  call void (ptr, ptr, ...) @proto_item_append_text(ptr noundef %95, ptr noundef @.str.573, i32 noundef %98)
  br label %99

99:                                               ; preds = %94, %89
  %100 = load i32, ptr %14, align 4
  %101 = add i32 %100, 1
  store i32 %101, ptr %14, align 4
  br label %102

102:                                              ; preds = %99, %81
  br label %103

103:                                              ; preds = %102
  %104 = load i32, ptr %20, align 4
  %105 = add i32 %104, 1
  store i32 %105, ptr %20, align 4
  br label %77, !llvm.loop !10

106:                                              ; preds = %80
  %107 = load ptr, ptr %10, align 8
  %108 = load i32, ptr %18, align 4
  call void (ptr, ptr, ...) @proto_item_append_text(ptr noundef %107, ptr noundef @.str.573, i32 noundef %108)
  %109 = load ptr, ptr %17, align 8
  %110 = load i32, ptr %18, align 4
  call void (ptr, ptr, ...) @proto_item_append_text(ptr noundef %109, ptr noundef @.str.574, i32 noundef %110)
  %111 = load i32, ptr %12, align 4
  %112 = add i32 %111, 1
  store i32 %112, ptr %12, align 4
  call void @llvm.lifetime.end.p0(i64 1, ptr %19) #6
  call void @llvm.lifetime.end.p0(i64 4, ptr %18) #6
  call void @llvm.lifetime.end.p0(i64 8, ptr %17) #6
  br label %113

113:                                              ; preds = %106, %61
  br label %114

114:                                              ; preds = %113
  %115 = load i32, ptr %15, align 4
  %116 = add i32 %115, 1
  store i32 %116, ptr %15, align 4
  br label %57, !llvm.loop !11

117:                                              ; preds = %60
  %118 = load ptr, ptr %9, align 8
  %119 = load ptr, ptr %5, align 8
  %120 = load i32, ptr %12, align 4
  call void @proto_item_set_end(ptr noundef %118, ptr noundef %119, i32 noundef %120)
  call void @llvm.lifetime.end.p0(i64 4, ptr %14) #6
  br label %121

121:                                              ; preds = %117, %4
  %122 = load i32, ptr %12, align 4
  store i32 1, ptr %16, align 4
  call void @llvm.lifetime.end.p0(i64 4, ptr %13) #6
  call void @llvm.lifetime.end.p0(i64 4, ptr %12) #6
  call void @llvm.lifetime.end.p0(i64 8, ptr %11) #6
  call void @llvm.lifetime.end.p0(i64 8, ptr %10) #6
  call void @llvm.lifetime.end.p0(i64 8, ptr %9) #6
  ret i32 %122
}